; Function Attrs: mustprogress nofree nounwind uwtable
define noundef zeroext i1 @_Z9availableP8_IO_FILEPKviPKc(ptr nocapture noundef %0, ptr noundef readnone %1, i32 noundef %2, ptr noundef %3) local_unnamed_addr #0 {
  %5 = icmp ne ptr %1, null
  br i1 %5, label %10, label %6

6:                                                ; preds = %4
  %7 = icmp sgt i32 %2, 0
  br i1 %7, label %.lr.ph.i, label %_Z9pr_indentP8_IO_FILEi.exit

.lr.ph.i:                                         ; preds = %6, %.lr.ph.i
  %.05.i = phi i32 [ %8, %.lr.ph.i ], [ 0, %6 ]
  %fputc.i = tail call i32 @fputc(i32 32, ptr %0)
  %8 = add nuw nsw i32 %.05.i, 1
  %exitcond.not.i = icmp eq i32 %8, %2
  br i1 %exitcond.not.i, label %_Z9pr_indentP8_IO_FILEi.exit, label %.lr.ph.i, !llvm.loop !5

_Z9pr_indentP8_IO_FILEi.exit:                     ; preds = %.lr.ph.i, %6
  %9 = tail call i32 (ptr, ptr, ...) @fprintf(ptr noundef %0, ptr noundef nonnull @.str.1, ptr noundef %3) #6
  br label %10

10:                                               ; preds = %_Z9pr_indentP8_IO_FILEi.exit, %4
  ret i1 %5
}